; ModuleID = '2/172.c'
source_filename = "2/172.c"
target datalayout = "e-m:e-p270:32:32-p271:32:32-p272:64:64-i64:64-f80:128-n8:16:32:64-S128"
target triple = "x86_64-pc-linux-gnu"

%struct.f = type { i32, [27 x i8] }

@.str = private unnamed_addr constant [3 x i8] c"%d\00", align 1
@.str.1 = private unnamed_addr constant [6 x i8] c"%d %s\00", align 1
@.str.2 = private unnamed_addr constant [7 x i8] c"%c\0A%d\0A\00", align 1
@.str.3 = private unnamed_addr constant [4 x i8] c"%d\0A\00", align 1

; Function Attrs: noinline nounwind uwtable
define dso_local i32 @main() #0 {
  %1 = alloca i32, align 4
  %2 = alloca i32, align 4
  %3 = alloca i32, align 4
  %4 = alloca [26 x i32], align 16
  %5 = alloca i32, align 4
  %6 = alloca %struct.f*, align 8
  %7 = alloca i8*, align 8
  %8 = alloca i32, align 4
  %9 = alloca i32, align 4
  %10 = alloca i8, align 1
  %11 = alloca i32, align 4
  store i32 0, i32* %1, align 4
  %12 = bitcast [26 x i32]* %4 to i8*
  call void @llvm.memset.p0i8.i64(i8* align 16 %12, i8 0, i64 104, i1 false)
  %13 = call i32 (i8*, ...) @__isoc99_scanf(i8* getelementptr inbounds ([3 x i8], [3 x i8]* @.str, i64 0, i64 0), i32* %2)
  %14 = load i32, i32* %2, align 4
  %15 = sext i32 %14 to i64
  %16 = mul i64 %15, 32
  %17 = call noalias i8* @malloc(i64 %16) #4
  %18 = bitcast i8* %17 to %struct.f*
  store %struct.f* %18, %struct.f** %6, align 8
  store i32 0, i32* %3, align 4
  br label %19

19:                                               ; preds = %36, %0
  %20 = load i32, i32* %3, align 4
  %21 = load i32, i32* %2, align 4
  %22 = icmp slt i32 %20, %21
  br i1 %22, label %23, label %39

23:                                               ; preds = %19
  %24 = load %struct.f*, %struct.f** %6, align 8
  %25 = load i32, i32* %3, align 4
  %26 = sext i32 %25 to i64
  %27 = getelementptr inbounds %struct.f, %struct.f* %24, i64 %26
  %28 = getelementptr inbounds %struct.f, %struct.f* %27, i32 0, i32 0
  %29 = load %struct.f*, %struct.f** %6, align 8
  %30 = load i32, i32* %3, align 4
  %31 = sext i32 %30 to i64
  %32 = getelementptr inbounds %struct.f, %struct.f* %29, i64 %31
  %33 = getelementptr inbounds %struct.f, %struct.f* %32, i32 0, i32 1
  %34 = getelementptr inbounds [27 x i8], [27 x i8]* %33, i64 0, i64 0
  %35 = call i32 (i8*, ...) @__isoc99_scanf(i8* getelementptr inbounds ([6 x i8], [6 x i8]* @.str.1, i64 0, i64 0), i32* %28, i8* %34)
  br label %36

36:                                               ; preds = %23
  %37 = load i32, i32* %3, align 4
  %38 = add nsw i32 %37, 1
  store i32 %38, i32* %3, align 4
  br label %19

39:                                               ; preds = %19
  store i32 0, i32* %3, align 4
  br label %40

40:                                               ; preds = %70, %39
  %41 = load i32, i32* %3, align 4
  %42 = load i32, i32* %2, align 4
  %43 = icmp slt i32 %41, %42
  br i1 %43, label %44, label %73

44:                                               ; preds = %40
  %45 = load %struct.f*, %struct.f** %6, align 8
  %46 = load i32, i32* %3, align 4
  %47 = sext i32 %46 to i64
  %48 = getelementptr inbounds %struct.f, %struct.f* %45, i64 %47
  %49 = getelementptr inbounds %struct.f, %struct.f* %48, i32 0, i32 1
  %50 = getelementptr inbounds [27 x i8], [27 x i8]* %49, i64 0, i64 0
  store i8* %50, i8** %7, align 8
  br label %51

51:                                               ; preds = %66, %44
  %52 = load i8*, i8** %7, align 8
  %53 = load i8, i8* %52, align 1
  %54 = icmp ne i8 %53, 0
  br i1 %54, label %55, label %69

55:                                               ; preds = %51
  %56 = load i8*, i8** %7, align 8
  %57 = load i8, i8* %56, align 1
  %58 = sext i8 %57 to i32
  %59 = sub nsw i32 %58, 65
  store i32 %59, i32* %5, align 4
  %60 = getelementptr inbounds [26 x i32], [26 x i32]* %4, i64 0, i64 0
  %61 = load i32, i32* %5, align 4
  %62 = sext i32 %61 to i64
  %63 = getelementptr inbounds i32, i32* %60, i64 %62
  %64 = load i32, i32* %63, align 4
  %65 = add nsw i32 %64, 1
  store i32 %65, i32* %63, align 4
  br label %66

66:                                               ; preds = %55
  %67 = load i8*, i8** %7, align 8
  %68 = getelementptr inbounds i8, i8* %67, i32 1
  store i8* %68, i8** %7, align 8
  br label %51

69:                                               ; preds = %51
  br label %70

70:                                               ; preds = %69
  %71 = load i32, i32* %3, align 4
  %72 = add nsw i32 %71, 1
  store i32 %72, i32* %3, align 4
  br label %40

73:                                               ; preds = %40
  store i32 0, i32* %8, align 4
  store i32 0, i32* %3, align 4
  br label %74

74:                                               ; preds = %93, %73
  %75 = load i32, i32* %3, align 4
  %76 = icmp slt i32 %75, 26
  br i1 %76, label %77, label %96

77:                                               ; preds = %74
  %78 = load i32, i32* %8, align 4
  %79 = getelementptr inbounds [26 x i32], [26 x i32]* %4, i64 0, i64 0
  %80 = load i32, i32* %3, align 4
  %81 = sext i32 %80 to i64
  %82 = getelementptr inbounds i32, i32* %79, i64 %81
  %83 = load i32, i32* %82, align 4
  %84 = icmp slt i32 %78, %83
  br i1 %84, label %85, label %92

85:                                               ; preds = %77
  %86 = getelementptr inbounds [26 x i32], [26 x i32]* %4, i64 0, i64 0
  %87 = load i32, i32* %3, align 4
  %88 = sext i32 %87 to i64
  %89 = getelementptr inbounds i32, i32* %86, i64 %88
  %90 = load i32, i32* %89, align 4
  store i32 %90, i32* %8, align 4
  %91 = load i32, i32* %3, align 4
  store i32 %91, i32* %9, align 4
  br label %92

92:                                               ; preds = %85, %77
  br label %93

93:                                               ; preds = %92
  %94 = load i32, i32* %3, align 4
  %95 = add nsw i32 %94, 1
  store i32 %95, i32* %3, align 4
  br label %74

96:                                               ; preds = %74
  %97 = load i32, i32* %9, align 4
  %98 = trunc i32 %97 to i8
  %99 = sext i8 %98 to i32
  %100 = add nsw i32 %99, 65
  %101 = trunc i32 %100 to i8
  store i8 %101, i8* %10, align 1
  %102 = load i8, i8* %10, align 1
  %103 = sext i8 %102 to i32
  %104 = load i32, i32* %8, align 4
  %105 = call i32 (i8*, ...) @printf(i8* getelementptr inbounds ([7 x i8], [7 x i8]* @.str.2, i64 0, i64 0), i32 %103, i32 %104)
  store i32 0, i32* %3, align 4
  br label %106

106:                                              ; preds = %151, %96
  %107 = load i32, i32* %3, align 4
  %108 = load i32, i32* %2, align 4
  %109 = icmp slt i32 %107, %108
  br i1 %109, label %110, label %154

110:                                              ; preds = %106
  %111 = load %struct.f*, %struct.f** %6, align 8
  %112 = load i32, i32* %3, align 4
  %113 = sext i32 %112 to i64
  %114 = getelementptr inbounds %struct.f, %struct.f* %111, i64 %113
  %115 = getelementptr inbounds %struct.f, %struct.f* %114, i32 0, i32 1
  %116 = getelementptr inbounds [27 x i8], [27 x i8]* %115, i64 0, i64 0
  store i8* %116, i8** %7, align 8
  store i32 1, i32* %11, align 4
  br label %117

117:                                              ; preds = %136, %110
  %118 = load i8*, i8** %7, align 8
  %119 = load i8, i8* %118, align 1
  %120 = sext i8 %119 to i32
  %121 = icmp ne i32 %120, 0
  br i1 %121, label %122, label %125

122:                                              ; preds = %117
  %123 = load i32, i32* %11, align 4
  %124 = icmp eq i32 %123, 1
  br label %125

125:                                              ; preds = %122, %117
  %126 = phi i1 [ false, %117 ], [ %124, %122 ]
  br i1 %126, label %127, label %139

127:                                              ; preds = %125
  %128 = load i8*, i8** %7, align 8
  %129 = load i8, i8* %128, align 1
  %130 = sext i8 %129 to i32
  %131 = load i8, i8* %10, align 1
  %132 = sext i8 %131 to i32
  %133 = icmp eq i32 %130, %132
  br i1 %133, label %134, label %135

134:                                              ; preds = %127
  store i32 0, i32* %11, align 4
  br label %135

135:                                              ; preds = %134, %127
  br label %136

136:                                              ; preds = %135
  %137 = load i8*, i8** %7, align 8
  %138 = getelementptr inbounds i8, i8* %137, i32 1
  store i8* %138, i8** %7, align 8
  br label %117

139:                                              ; preds = %125
  %140 = load i32, i32* %11, align 4
  %141 = icmp eq i32 %140, 0
  br i1 %141, label %142, label %150

142:                                              ; preds = %139
  %143 = load %struct.f*, %struct.f** %6, align 8
  %144 = load i32, i32* %3, align 4
  %145 = sext i32 %144 to i64
  %146 = getelementptr inbounds %struct.f, %struct.f* %143, i64 %145
  %147 = getelementptr inbounds %struct.f, %struct.f* %146, i32 0, i32 0
  %148 = load i32, i32* %147, align 4
  %149 = call i32 (i8*, ...) @printf(i8* getelementptr inbounds ([4 x i8], [4 x i8]* @.str.3, i64 0, i64 0), i32 %148)
  br label %150

150:                                              ; preds = %142, %139
  br label %151

151:                                              ; preds = %150
  %152 = load i32, i32* %3, align 4
  %153 = add nsw i32 %152, 1
  store i32 %153, i32* %3, align 4
  br label %106

154:                                              ; preds = %106
  %155 = load i32, i32* %1, align 4
  ret i32 %155
}

; Function Attrs: argmemonly nounwind willreturn
declare void @llvm.memset.p0i8.i64(i8* nocapture writeonly, i8, i64, i1 immarg) #1

declare dso_local i32 @__isoc99_scanf(i8*, ...) #2

; Function Attrs: nounwind
declare dso_local noalias i8* @malloc(i64) #3

declare dso_local i32 @printf(i8*, ...) #2


!llvm.module.flags = !{!0}
!llvm.ident = !{!1}

!0 = !{i32 1, !"wchar_size", i32 4}
!1 = !{!"clang version 10.0.0-4ubuntu1 "}
